; Function Attrs: nounwind uwtable
define hidden void @SDL_DestroyGPURenderState_REAL(ptr noundef %0) local_unnamed_addr #0 {
  %.not = icmp eq ptr %0, null
  br i1 %.not, label %51, label %2

2:                                                ; preds = %1
  %.val = load ptr, ptr %0, align 8
  %3 = getelementptr i8, ptr %0, i64 8
  %.val13 = load i32, ptr %3, align 8
  %4 = getelementptr inbounds nuw i8, ptr %.val, i64 560
  %5 = load i32, ptr %4, align 8
  %6 = icmp eq i32 %.val13, %5
  br i1 %6, label %7, label %FlushRenderCommandsIfGPURenderStateNeeded.exit

7:                                                ; preds = %2
  %8 = getelementptr inbounds nuw i8, ptr %.val, i64 536
  %9 = load ptr, ptr %8, align 8
  %.not.i.i = icmp eq ptr %9, null
  br i1 %.not.i.i, label %FlushRenderCommandsIfGPURenderStateNeeded.exit, label %10

10:                                               ; preds = %7
  %11 = getelementptr inbounds nuw i8, ptr %.val, i64 104
  %12 = load ptr, ptr %11, align 8
  %13 = getelementptr inbounds nuw i8, ptr %.val, i64 624
  %14 = load ptr, ptr %13, align 8
  %15 = getelementptr inbounds nuw i8, ptr %.val, i64 632
  %16 = load i64, ptr %15, align 8
  %17 = tail call zeroext i1 %12(ptr noundef nonnull %.val, ptr noundef nonnull %9, ptr noundef %14, i64 noundef %16) #15
  %18 = getelementptr inbounds nuw i8, ptr %.val, i64 544
  %19 = load ptr, ptr %18, align 8
  %.not22.i.i = icmp eq ptr %19, null
  br i1 %.not22.i.i, label %25, label %20

20:                                               ; preds = %10
  %21 = getelementptr inbounds nuw i8, ptr %.val, i64 552
  %22 = load ptr, ptr %21, align 8
  %23 = getelementptr inbounds nuw i8, ptr %19, i64 80
  store ptr %22, ptr %23, align 8
  %24 = load ptr, ptr %8, align 8
  store ptr %24, ptr %21, align 8
  tail call void @llvm.memset.p0.i64(ptr noundef nonnull align 8 dereferenceable(16) %8, i8 0, i64 16, i1 false)
  br label %25

25:                                               ; preds = %20, %10
  store i64 0, ptr %15, align 8
  %26 = load i32, ptr %4, align 8
  %27 = add i32 %26, 1
  store i32 %27, ptr %4, align 8
  %28 = getelementptr inbounds nuw i8, ptr %.val, i64 617
  store i8 0, ptr %28, align 1
  %29 = getelementptr inbounds nuw i8, ptr %.val, i64 618
  store i8 0, ptr %29, align 2
  %30 = getelementptr inbounds nuw i8, ptr %.val, i64 619
  store i8 0, ptr %30, align 1
  br label %FlushRenderCommandsIfGPURenderStateNeeded.exit

FlushRenderCommandsIfGPURenderStateNeeded.exit:   ; preds = %2, %7, %25
  %31 = getelementptr inbounds nuw i8, ptr %0, i64 72
  %32 = load i32, ptr %31, align 8
  %33 = icmp sgt i32 %32, 0
  br i1 %33, label %.lr.ph, label %44

.lr.ph:                                           ; preds = %FlushRenderCommandsIfGPURenderStateNeeded.exit
  %34 = getelementptr inbounds nuw i8, ptr %0, i64 80
  br label %37

._crit_edge:                                      ; preds = %37
  %35 = getelementptr inbounds nuw i8, ptr %0, i64 80
  %36 = load ptr, ptr %35, align 8
  tail call void @SDL_free_REAL(ptr noundef %36) #15
  br label %44

37:                                               ; preds = %.lr.ph, %37
  %indvars.iv = phi i64 [ 0, %.lr.ph ], [ %indvars.iv.next, %37 ]
  %38 = load ptr, ptr %34, align 8
  %39 = getelementptr inbounds nuw %struct.SDL_GPURenderStateUniformBuffer, ptr %38, i64 %indvars.iv, i32 1
  %40 = load ptr, ptr %39, align 8
  tail call void @SDL_free_REAL(ptr noundef %40) #15
  %indvars.iv.next = add nuw nsw i64 %indvars.iv, 1
  %41 = load i32, ptr %31, align 8
  %42 = sext i32 %41 to i64
  %43 = icmp slt i64 %indvars.iv.next, %42
  br i1 %43, label %37, label %._crit_edge, !llvm.loop !43

44:                                               ; preds = %._crit_edge, %FlushRenderCommandsIfGPURenderStateNeeded.exit
  %45 = getelementptr inbounds nuw i8, ptr %0, i64 32
  %46 = load ptr, ptr %45, align 8
  tail call void @SDL_free_REAL(ptr noundef %46) #15
  %47 = getelementptr inbounds nuw i8, ptr %0, i64 48
  %48 = load ptr, ptr %47, align 8
  tail call void @SDL_free_REAL(ptr noundef %48) #15
  %49 = getelementptr inbounds nuw i8, ptr %0, i64 64
  %50 = load ptr, ptr %49, align 8
  tail call void @SDL_free_REAL(ptr noundef %50) #15
  tail call void @SDL_free_REAL(ptr noundef nonnull %0) #15
  br label %51

51:                                               ; preds = %1, %44
  ret void
}